target datalayout = "e-m:e-p270:32:32-p271:32:32-p272:64:64-i64:64-i128:128-f80:128-n8:16:32:64-S128"
target triple = "x86_64-pc-linux-gnu"

; Function Attrs: mustprogress uwtable
define internal void @_ZL14sigChldHandleri(i32 noundef %0) #5 {
  %2 = alloca i32, align 4
  %3 = alloca i32, align 4
  store i32 %0, ptr %2, align 4
  %4 = call ptr @__errno_location() #26
  %5 = load i32, ptr %4, align 4
  store i32 %5, ptr %3, align 4
  br label %6

6:                                                ; preds = %9, %1
  %7 = call i32 @waitpid(i32 noundef -1, ptr noundef null, i32 noundef 1)
  %8 = icmp sgt i32 %7, 0
  br i1 %8, label %9, label %10

9:                                                ; preds = %6
  br label %6, !llvm.loop !48

10:                                               ; preds = %6
  %11 = load i32, ptr %3, align 4
  %12 = call ptr @__errno_location() #26
  store i32 %11, ptr %12, align 4
  ret void
}