; Function Attrs: mustprogress uwtable
define internal void @_ZL14sigChldHandleri(i32 %0) #4 {
  %2 = tail call ptr @__errno_location() #36
  %3 = load i32, ptr %2, align 4
  br label %4

4:                                                ; preds = %4, %1
  %5 = tail call i32 @waitpid(i32 noundef -1, ptr noundef null, i32 noundef 1)
  %6 = icmp sgt i32 %5, 0
  br i1 %6, label %4, label %7, !llvm.loop !86

7:                                                ; preds = %4
  store i32 %3, ptr %2, align 4
  ret void
}